; Function Attrs: mustprogress uwtable
define dso_local void @_Z32ImGui_ImplGlfw_CursorPosCallbackP10GLFWwindowdd(ptr noundef %0, double noundef %1, double noundef %2) #1 {
_ZL29ImGui_ImplGlfw_GetBackendDatav.exit:
  %3 = tail call noundef ptr @_ZN5ImGui17GetCurrentContextEv()
  %.not.i = icmp ne ptr %3, null
  tail call void @llvm.assume(i1 %.not.i)
  %4 = tail call noundef nonnull align 8 dereferenceable(2944) ptr @_ZN5ImGui5GetIOEv()
  %5 = getelementptr inbounds nuw i8, ptr %4, i64 144
  %6 = load ptr, ptr %5, align 8, !tbaa !4
  %7 = getelementptr inbounds nuw i8, ptr %6, i64 128
  %8 = load ptr, ptr %7, align 8, !tbaa !35
  %.not = icmp eq ptr %8, null
  br i1 %.not, label %22, label %9

9:                                                ; preds = %_ZL29ImGui_ImplGlfw_GetBackendDatav.exit
  %10 = tail call noundef ptr @_ZN5ImGui17GetCurrentContextEv()
  %.not.i.i = icmp eq ptr %10, null
  br i1 %.not.i.i, label %_ZL29ImGui_ImplGlfw_GetBackendDatav.exit.i, label %11

11:                                               ; preds = %9
  %12 = tail call noundef nonnull align 8 dereferenceable(2944) ptr @_ZN5ImGui5GetIOEv()
  %13 = getelementptr inbounds nuw i8, ptr %12, i64 144
  %14 = load ptr, ptr %13, align 8, !tbaa !4
  br label %_ZL29ImGui_ImplGlfw_GetBackendDatav.exit.i

_ZL29ImGui_ImplGlfw_GetBackendDatav.exit.i:       ; preds = %11, %9
  %15 = phi ptr [ %14, %11 ], [ null, %9 ]
  %16 = getelementptr inbounds nuw i8, ptr %15, i64 113
  %17 = load i8, ptr %16, align 1, !tbaa !26, !range !27, !noundef !28
  %18 = trunc nuw i8 %17 to i1
  br i1 %18, label %_ZL34ImGui_ImplGlfw_ShouldChainCallbackP10GLFWwindow.exit.thread, label %_ZL34ImGui_ImplGlfw_ShouldChainCallbackP10GLFWwindow.exit

_ZL34ImGui_ImplGlfw_ShouldChainCallbackP10GLFWwindow.exit: ; preds = %_ZL29ImGui_ImplGlfw_GetBackendDatav.exit.i
  %19 = load ptr, ptr %15, align 8, !tbaa !29
  %20 = icmp eq ptr %0, %19
  br i1 %20, label %_ZL34ImGui_ImplGlfw_ShouldChainCallbackP10GLFWwindow.exit.thread, label %22

_ZL34ImGui_ImplGlfw_ShouldChainCallbackP10GLFWwindow.exit.thread: ; preds = %_ZL29ImGui_ImplGlfw_GetBackendDatav.exit.i, %_ZL34ImGui_ImplGlfw_ShouldChainCallbackP10GLFWwindow.exit
  %21 = load ptr, ptr %7, align 8, !tbaa !35
  tail call void %21(ptr noundef %0, double noundef %1, double noundef %2)
  br label %22

22:                                               ; preds = %_ZL34ImGui_ImplGlfw_ShouldChainCallbackP10GLFWwindow.exit.thread, %_ZL34ImGui_ImplGlfw_ShouldChainCallbackP10GLFWwindow.exit, %_ZL29ImGui_ImplGlfw_GetBackendDatav.exit
  %23 = tail call noundef nonnull align 8 dereferenceable(2944) ptr @_ZN5ImGui5GetIOEv()
  %24 = fptrunc double %1 to float
  %25 = fptrunc double %2 to float
  tail call void @_ZN7ImGuiIO16AddMousePosEventEff(ptr noundef nonnull align 8 dereferenceable(2944) %23, float noundef %24, float noundef %25)
  %26 = getelementptr inbounds nuw i8, ptr %6, i64 104
  store float %24, ptr %26, align 8
  %.sroa_idx12 = getelementptr inbounds nuw i8, ptr %6, i64 108
  store float %25, ptr %.sroa_idx12, align 4
  ret void
}